target datalayout = "e-m:e-p270:32:32-p271:32:32-p272:64:64-i64:64-i128:128-f80:128-n8:16:32:64-S128"
target triple = "x86_64-pc-linux-gnu"

%struct.curve448_scalar_s = type { [7 x i64] }

@sc_p = internal constant [1 x %struct.curve448_scalar_s] [%struct.curve448_scalar_s { [7 x i64] [i64 2556006723728458995, i64 2408513697996967765, i64 -4301259484579875184, i64 -2201345047, i64 -1, i64 -1, i64 4611686018427387903] }], align 16

; Function Attrs: nounwind uwtable
define void @ossl_curve448_scalar_halve(ptr noundef %0, ptr noundef %1) #0 {
  %3 = alloca ptr, align 8
  %4 = alloca ptr, align 8
  %5 = alloca i64, align 8
  %6 = alloca i128, align 16
  %7 = alloca i32, align 4
  store ptr %0, ptr %3, align 8, !tbaa !3
  store ptr %1, ptr %4, align 8, !tbaa !3
  call void @llvm.lifetime.start.p0(i64 8, ptr %5) #6
  %8 = load ptr, ptr %4, align 8, !tbaa !3
  %9 = getelementptr inbounds nuw %struct.curve448_scalar_s, ptr %8, i32 0, i32 0
  %10 = getelementptr inbounds [7 x i64], ptr %9, i64 0, i64 0
  %11 = load i64, ptr %10, align 8, !tbaa !8
  %12 = and i64 %11, 1
  %13 = sub i64 0, %12
  store i64 %13, ptr %5, align 8, !tbaa !8
  call void @llvm.lifetime.start.p0(i64 16, ptr %6) #6
  store i128 0, ptr %6, align 16, !tbaa !14
  call void @llvm.lifetime.start.p0(i64 4, ptr %7) #6
  store i32 0, ptr %7, align 4, !tbaa !10
  br label %14

14:                                               ; preds = %44, %2
  %15 = load i32, ptr %7, align 4, !tbaa !10
  %16 = icmp ult i32 %15, 7
  br i1 %16, label %17, label %47

17:                                               ; preds = %14
  %18 = load i128, ptr %6, align 16, !tbaa !14
  %19 = load ptr, ptr %4, align 8, !tbaa !3
  %20 = getelementptr inbounds nuw %struct.curve448_scalar_s, ptr %19, i32 0, i32 0
  %21 = load i32, ptr %7, align 4, !tbaa !10
  %22 = zext i32 %21 to i64
  %23 = getelementptr inbounds nuw [7 x i64], ptr %20, i64 0, i64 %22
  %24 = load i64, ptr %23, align 8, !tbaa !8
  %25 = zext i64 %24 to i128
  %26 = add i128 %18, %25
  %27 = load i32, ptr %7, align 4, !tbaa !10
  %28 = zext i32 %27 to i64
  %29 = getelementptr inbounds nuw [7 x i64], ptr @sc_p, i64 0, i64 %28
  %30 = load i64, ptr %29, align 8, !tbaa !8
  %31 = load i64, ptr %5, align 8, !tbaa !8
  %32 = and i64 %30, %31
  %33 = zext i64 %32 to i128
  %34 = add i128 %26, %33
  store i128 %34, ptr %6, align 16, !tbaa !14
  %35 = load i128, ptr %6, align 16, !tbaa !14
  %36 = trunc i128 %35 to i64
  %37 = load ptr, ptr %3, align 8, !tbaa !3
  %38 = getelementptr inbounds nuw %struct.curve448_scalar_s, ptr %37, i32 0, i32 0
  %39 = load i32, ptr %7, align 4, !tbaa !10
  %40 = zext i32 %39 to i64
  %41 = getelementptr inbounds nuw [7 x i64], ptr %38, i64 0, i64 %40
  store i64 %36, ptr %41, align 8, !tbaa !8
  %42 = load i128, ptr %6, align 16, !tbaa !14
  %43 = lshr i128 %42, 64
  store i128 %43, ptr %6, align 16, !tbaa !14
  br label %44

44:                                               ; preds = %17
  %45 = load i32, ptr %7, align 4, !tbaa !10
  %46 = add i32 %45, 1
  store i32 %46, ptr %7, align 4, !tbaa !10
  br label %14, !llvm.loop !33

47:                                               ; preds = %14
  store i32 0, ptr %7, align 4, !tbaa !10
  br label %48

48:                                               ; preds = %73, %47
  %49 = load i32, ptr %7, align 4, !tbaa !10
  %50 = icmp ult i32 %49, 6
  br i1 %50, label %51, label %76

51:                                               ; preds = %48
  %52 = load ptr, ptr %3, align 8, !tbaa !3
  %53 = getelementptr inbounds nuw %struct.curve448_scalar_s, ptr %52, i32 0, i32 0
  %54 = load i32, ptr %7, align 4, !tbaa !10
  %55 = zext i32 %54 to i64
  %56 = getelementptr inbounds nuw [7 x i64], ptr %53, i64 0, i64 %55
  %57 = load i64, ptr %56, align 8, !tbaa !8
  %58 = lshr i64 %57, 1
  %59 = load ptr, ptr %3, align 8, !tbaa !3
  %60 = getelementptr inbounds nuw %struct.curve448_scalar_s, ptr %59, i32 0, i32 0
  %61 = load i32, ptr %7, align 4, !tbaa !10
  %62 = add i32 %61, 1
  %63 = zext i32 %62 to i64
  %64 = getelementptr inbounds nuw [7 x i64], ptr %60, i64 0, i64 %63
  %65 = load i64, ptr %64, align 8, !tbaa !8
  %66 = shl i64 %65, 63
  %67 = or i64 %58, %66
  %68 = load ptr, ptr %3, align 8, !tbaa !3
  %69 = getelementptr inbounds nuw %struct.curve448_scalar_s, ptr %68, i32 0, i32 0
  %70 = load i32, ptr %7, align 4, !tbaa !10
  %71 = zext i32 %70 to i64
  %72 = getelementptr inbounds nuw [7 x i64], ptr %69, i64 0, i64 %71
  store i64 %67, ptr %72, align 8, !tbaa !8
  br label %73

73:                                               ; preds = %51
  %74 = load i32, ptr %7, align 4, !tbaa !10
  %75 = add i32 %74, 1
  store i32 %75, ptr %7, align 4, !tbaa !10
  br label %48, !llvm.loop !34

76:                                               ; preds = %48
  %77 = load ptr, ptr %3, align 8, !tbaa !3
  %78 = getelementptr inbounds nuw %struct.curve448_scalar_s, ptr %77, i32 0, i32 0
  %79 = load i32, ptr %7, align 4, !tbaa !10
  %80 = zext i32 %79 to i64
  %81 = getelementptr inbounds nuw [7 x i64], ptr %78, i64 0, i64 %80
  %82 = load i64, ptr %81, align 8, !tbaa !8
  %83 = lshr i64 %82, 1
  %84 = load i128, ptr %6, align 16, !tbaa !14
  %85 = shl i128 %84, 63
  %86 = trunc i128 %85 to i64
  %87 = or i64 %83, %86
  %88 = load ptr, ptr %3, align 8, !tbaa !3
  %89 = getelementptr inbounds nuw %struct.curve448_scalar_s, ptr %88, i32 0, i32 0
  %90 = load i32, ptr %7, align 4, !tbaa !10
  %91 = zext i32 %90 to i64
  %92 = getelementptr inbounds nuw [7 x i64], ptr %89, i64 0, i64 %91
  store i64 %87, ptr %92, align 8, !tbaa !8
  call void @llvm.lifetime.end.p0(i64 4, ptr %7) #6
  call void @llvm.lifetime.end.p0(i64 16, ptr %6) #6
  call void @llvm.lifetime.end.p0(i64 8, ptr %5) #6
  ret void
}