; Function Attrs: nofree norecurse nosync nounwind memory(argmem: readwrite) uwtable
define void @ossl_curve448_scalar_halve(ptr noundef captures(none) %0, ptr noundef readonly captures(none) %1) local_unnamed_addr #0 {
  %3 = load i64, ptr %1, align 8, !tbaa !3
  %.fr = freeze i64 %3
  %4 = and i64 %.fr, 1
  %5 = icmp eq i64 %4, 0
  br i1 %5, label %.split.us, label %.split

.split.us:                                        ; preds = %2, %.split.us
  %indvars.iv32 = phi i64 [ %indvars.iv.next33, %.split.us ], [ 0, %2 ]
  %6 = getelementptr inbounds nuw [7 x i64], ptr %1, i64 0, i64 %indvars.iv32
  %7 = load i64, ptr %6, align 8, !tbaa !3
  %8 = getelementptr inbounds nuw [7 x i64], ptr %0, i64 0, i64 %indvars.iv32
  store i64 %7, ptr %8, align 8, !tbaa !3
  %indvars.iv.next33 = add nuw nsw i64 %indvars.iv32, 1
  %exitcond35.not = icmp eq i64 %indvars.iv.next33, 7
  br i1 %exitcond35.not, label %.preheader, label %.split.us, !llvm.loop !22

.preheader.loopexit30:                            ; preds = %.split
  %extract.t29 = trunc nuw nsw i128 %19 to i64
  br label %.preheader

.preheader:                                       ; preds = %.split.us, %.preheader.loopexit30
  %.us-phi.off0 = phi i64 [ %extract.t29, %.preheader.loopexit30 ], [ 0, %.split.us ]
  %.pre = load i64, ptr %0, align 8, !tbaa !3
  br label %20

.split:                                           ; preds = %2, %.split
  %indvars.iv = phi i64 [ %indvars.iv.next, %.split ], [ 0, %2 ]
  %.02425 = phi i128 [ %19, %.split ], [ 0, %2 ]
  %9 = getelementptr inbounds nuw [7 x i64], ptr %1, i64 0, i64 %indvars.iv
  %10 = load i64, ptr %9, align 8, !tbaa !3
  %11 = zext i64 %10 to i128
  %12 = add nuw nsw i128 %.02425, %11
  %13 = getelementptr inbounds nuw [7 x i64], ptr @sc_p, i64 0, i64 %indvars.iv
  %14 = load i64, ptr %13, align 8, !tbaa !3
  %15 = zext i64 %14 to i128
  %16 = add nuw nsw i128 %12, %15
  %17 = trunc i128 %16 to i64
  %18 = getelementptr inbounds nuw [7 x i64], ptr %0, i64 0, i64 %indvars.iv
  store i64 %17, ptr %18, align 8, !tbaa !3
  %19 = lshr i128 %16, 64
  %indvars.iv.next = add nuw nsw i64 %indvars.iv, 1
  %exitcond.not = icmp eq i64 %indvars.iv.next, 7
  br i1 %exitcond.not, label %.preheader.loopexit30, label %.split, !llvm.loop !22

20:                                               ; preds = %.preheader, %20
  %21 = phi i64 [ %.pre, %.preheader ], [ %24, %20 ]
  %indvars.iv36 = phi i64 [ 0, %.preheader ], [ %indvars.iv.next37, %20 ]
  %22 = getelementptr inbounds nuw [7 x i64], ptr %0, i64 0, i64 %indvars.iv36
  %indvars.iv.next37 = add nuw nsw i64 %indvars.iv36, 1
  %23 = getelementptr inbounds nuw [7 x i64], ptr %0, i64 0, i64 %indvars.iv.next37
  %24 = load i64, ptr %23, align 8, !tbaa !3
  %25 = tail call i64 @llvm.fshl.i64(i64 %24, i64 %21, i64 63)
  store i64 %25, ptr %22, align 8, !tbaa !3
  %exitcond39.not = icmp eq i64 %indvars.iv.next37, 6
  br i1 %exitcond39.not, label %26, label %20, !llvm.loop !23

26:                                               ; preds = %20
  %27 = getelementptr inbounds nuw i8, ptr %0, i64 48
  %28 = load i64, ptr %27, align 8, !tbaa !3
  %29 = tail call i64 @llvm.fshl.i64(i64 %.us-phi.off0, i64 %28, i64 63)
  store i64 %29, ptr %27, align 8, !tbaa !3
  ret void
}